(dp0
S'cookies'
p1
(dp2
S'wxloadtime'
p3
S'1503124958'
p4
sS'webwx_data_ticket'
p5
S'gSf2xF3r5a/zcQiTkK0D8j5Z'
p6
sS'wxuin'
p7
S'3306825598'
p8
sS'login_frequency'
p9
S'2'
p10
sS'MM_WX_NOTIFY_STATE'
p11
S'1'
p12
sS'MM_WX_SOUND_STATE'
p13
g12
sS'webwx_auth_ticket'
p14
S'CIsBEL7I0f4PGoABECuORh4MG6YmqowUtK+jAIXxoGYNMyLps9FEz3lIxSA+bXBmGTFQ7opbLtCjsvvqkwxfDQ+yN/KZqFw8AyBimQBJVdiicfZ74snS6GFzjEA92FsJyxvKVOXJUeA8usBvNyIjzYlpKs4cxYQohmhF3cU8xGv7GpPsLGu7/CnxCrQ='
p15
sS'last_wxuin'
p16
S'3306825598'
p17
sS'webwxuvid'
p18
S'a8493f77ef1d41cc786454bdf245186ca5499f57377658e7bf7623cdbfba073b204873c5c36d9755999521728bd4ddc7'
p19
sS'wxpluginkey'
p20
S'1503122689'
p21
sS'wxsid'
p22
S'rCMebVqk9NqL6f1l'
p23
sS'mm_lang'
p24
S'zh_CN'
p25
ssS'version'
p26
S'1.3.9'
p27
sS'storage'
p28
(dp29
S'userName'
p30
V@6389761848af54133829d55c220f07bd2fdfaf5cc03716d04622d47298712ec6
p31
sS'lastInputUserName'
p32
NsS'memberList'
p33
ccopy_reg
_reconstructor
p34
(citchat.storage.templates
ContactList
p35
c__builtin__
list
p36
(lp37
g34
(citchat.storage.templates
User
p38
c__builtin__
dict
p39
(dp40
S'UserName'
p41
g31
sS'City'
p42
S''
p43
sS'DisplayName'
p44
g43
sS'UniFriend'
p45
I0
sS'OwnerUin'
p46
I0
sS'MemberList'
p47
g34
(g35
g36
(lp48
tp49
Rp50
I1
bsS'PYQuanPin'
p51
V
p52
sS'RemarkPYInitial'
p53
g52
sS'Uin'
p54
I3306825598
sS'AppAccountFlag'
p55
I0
sS'VerifyFlag'
p56
I0
sS'Province'
p57
g43
sS'KeyWord'
p58
g43
sS'RemarkName'
p59
g52
sS'PYInitial'
p60
g52
sS'ChatRoomId'
p61
I0
sS'HideInputBarFlag'
p62
I0
sVHeadImgFlag
p63
I1
sS'EncryChatRoomId'
p64
g43
sS'AttrStatus'
p65
I0
sS'SnsFlag'
p66
I0
sS'MemberCount'
p67
I0
sVWebWxPluginSwitch
p68
I0
sS'Alias'
p69
g43
sS'Signature'
p70
g52
sS'ContactFlag'
p71
I0
sS'NickName'
p72
Vcoinspider
p73
sS'RemarkPYQuanPin'
p74
g52
sS'HeadImgUrl'
p75
V/cgi-bin/mmwebwx-bin/webwxgeticon?seq=267813541&username=@6389761848af54133829d55c220f07bd2fdfaf5cc03716d04622d47298712ec6&skey=@crypt_c9971aa5_fbb72fe8913848dd6bcf009e4d69a0b4
p76
sS'Sex'
p77
I1
sS'StarFriend'
p78
I0
sS'Statues'
p79
I0
stp80
Rp81
I1
bag34
(g38
g39
(dp82
VUserName
p83
V@24b5812971b092016972e079b6c49a30
p84
sVCity
p85
V\u671d\u9633
p86
sVSnsFlag
p87
I17
sVDisplayName
p88
g52
sVUniFriend
p89
I0
sVMemberCount
p90
I0
sVOwnerUin
p91
I0
sVMemberList
p92
g50
sVAlias
p93
g52
sVPYQuanPin
p94
VLanford
p95
sVSignature
p96
g52
sVRemarkPYInitial
p97
g52
sVContactFlag
p98
I3
sVUin
p99
I0
sVNickName
p100
VLanford
p101
sVAppAccountFlag
p102
I0
sVVerifyFlag
p103
I0
sVRemarkPYQuanPin
p104
g52
sVHeadImgUrl
p105
V/cgi-bin/mmwebwx-bin/webwxgeticon?seq=601680041&username=@24b5812971b092016972e079b6c49a30&skey=@crypt_c9971aa5_fbb72fe8913848dd6bcf009e4d69a0b4
p106
sVKeyWord
p107
Vacc
p108
sVProvince
p109
V\u5317\u4eac
p110
sVPYInitial
p111
VLANFORD
p112
sVRemarkName
p113
g52
sVIsOwner
p114
I0
sVSex
p115
I1
sVStarFriend
p116
I0
sVHideInputBarFlag
p117
I0
sVChatRoomId
p118
I0
sVEncryChatRoomId
p119
g52
sVAttrStatus
p120
I33806373
sVStatues
p121
I0
stp122
Rp123
I1
batp124
Rp125
I1
bsS'chatroomList'
p126
g34
(g35
g36
(lp127
g34
(citchat.storage.templates
Chatroom
p128
g39
(dp129
VUserName
p130
V@@b5a9dce7fc47d28a5769c1475acc8e9d94b466d5889fd49aac4261c5bba62b2e
p131
sVCity
p132
g52
sVDisplayName
p133
g52
sVUniFriend
p134
I0
sS'Self'
p135
g34
(g38
g39
(dp136
g41
g31
sg42
g43
sg44
g43
sg45
I0
sg46
I0
sg47
g34
(g35
g36
(lp137
tp138
Rp139
I1
bsg51
g52
sg53
g52
sg54
I3306825598
sg55
I0
sg56
I0
sg57
g43
sg58
g43
sg59
g52
sg60
g52
sg61
I0
sg62
I0
sg63
I1
sg64
g43
sg65
I0
sg66
I0
sg67
I0
sg68
I0
sg69
g43
sg70
g52
sg71
I0
sg72
g73
sg74
g52
sg75
g76
sg77
I1
sg78
I0
sg79
I0
stp140
Rp141
I1
bsVMemberList
p142
g34
(g35
g36
(lp143
tp144
Rp145
I1
bsVPYQuanPin
p146
g52
sVRemarkPYInitial
p147
g52
sVSex
p148
I0
sVAppAccountFlag
p149
I0
sVVerifyFlag
p150
I0
sVProvince
p151
g52
sVKeyWord
p152
g52
sVRemarkName
p153
g52
sVPYInitial
p154
g52
sVIsOwner
p155
I0
sVChatRoomId
p156
I0
sVHideInputBarFlag
p157
I0
sVEncryChatRoomId
p158
g52
sVAttrStatus
p159
I0
sVSnsFlag
p160
I0
sVMemberCount
p161
I5
sVOwnerUin
p162
I0
sVAlias
p163
g52
sS'IsAdmin'
p164
NsVSignature
p165
g52
sVContactFlag
p166
I0
sVNickName
p167
V\u5e01\u63a8\u9001
p168
sVRemarkPYQuanPin
p169
g52
sVHeadImgUrl
p170
V/cgi-bin/mmwebwx-bin/webwxgetheadimg?seq=0&username=@@b5a9dce7fc47d28a5769c1475acc8e9d94b466d5889fd49aac4261c5bba62b2e&skey=@crypt_c9971aa5_fbb72fe8913848dd6bcf009e4d69a0b4
p171
sVUin
p172
I0
sVStarFriend
p173
I0
sVStatues
p174
I1
stp175
Rp176
I1
batp177
Rp178
I1
bsS'nickName'
p179
g73
sS'mpList'
p180
g34
(g35
g36
(lp181
tp182
Rp183
I1
bssS'loginInfo'
p184
(dp185
S'SyncKey'
p186
(dp187
VCount
p188
I4
sVList
p189
(lp190
(dp191
VVal
p192
I601680039
sVKey
p193
I1
sa(dp194
VVal
p195
I601680049
sVKey
p196
I2
sa(dp197
VVal
p198
I601680050
sVKey
p199
I3
sa(dp200
VVal
p201
I1503122689
sVKey
p202
I1000
sassS'syncUrl'
p203
S'https://webpush.wx2.qq.com/cgi-bin/mmwebwx-bin'
p204
sS'skey'
p205
V@crypt_c9971aa5_fbb72fe8913848dd6bcf009e4d69a0b4
p206
sS'wxuin'
p207
V3306825598
p208
sS'synckey'
p209
S'1_601680039|2_601680049|3_601680050|1000_1503122689'
p210
sS'url'
p211
Vhttps://wx2.qq.com/cgi-bin/mmwebwx-bin
p212
sS'pass_ticket'
p213
VHNcl9a2N4RTxDhSjz%2BsvXfw6hCsl6b%2Flkfc4D5FV9b6n8yOspOpqN9oNOqoawdya
p214
sS'wxsid'
p215
VrCMebVqk9NqL6f1l
p216
sS'InviteStartCount'
p217
I40
sS'deviceid'
p218
S'e509135947799298'
p219
sS'fileUrl'
p220
S'https://file.wx2.qq.com/cgi-bin/mmwebwx-bin'
p221
sS'BaseRequest'
p222
(dp223
g54
g208
sS'Skey'
p224
g206
sS'DeviceID'
p225
g214
sS'Sid'
p226
g216
ssS'User'
p227
g34
(g38
g39
(dp228
g41
g31
sg42
g43
sg44
g43
sg45
I0
sg47
g50
sg51
g52
sg53
g52
sg77
I1
sg55
I0
sg56
I0
sg57
g43
sg58
g43
sg59
g52
sg60
g52
sg61
I0
sg62
I0
sg63
I1
sg64
g43
sg65
I0
sg68
I0
sg66
I0
sg67
I0
sg46
I0
sg69
g43
sg70
g52
sg71
I0
sg72
g73
sg74
g52
sg75
g76
sg54
I3306825598
sg78
I0
sg79
I0
stp229
Rp230
I1
bss.